target datalayout = "e-m:e-p270:32:32-p271:32:32-p272:64:64-i64:64-i128:128-f80:128-n8:16:32:64-S128"
target triple = "x86_64-pc-linux-gnu"

%union.anon = type { float }
%union.anon.0 = type { float }
%union.anon.1 = type { float }

; Function Attrs: mustprogress nounwind uwtable
define linkonce_odr hidden noundef i32 @_ZNSt14numeric_limitsIjE3maxEv() #4 comdat align 2 {
  ret i32 -1
}

; Function Attrs: inlinehint mustprogress nounwind uwtable
define internal noundef zeroext i1 @_ZN7Imf_3_412_GLOBAL__N_110isInfinityEf(float noundef %0) #5 {
  %2 = alloca float, align 4
  %3 = alloca %union.anon.1, align 4
  store float %0, ptr %2, align 4, !tbaa !11
  call void @llvm.lifetime.start.p0(i64 4, ptr %3) #3
  %4 = load float, ptr %2, align 4, !tbaa !11
  store float %4, ptr %3, align 4, !tbaa !13
  %5 = load i32, ptr %3, align 4, !tbaa !13
  %6 = and i32 %5, 2147483647
  %7 = icmp eq i32 %6, 2139095040
  call void @llvm.lifetime.end.p0(i64 4, ptr %3) #3
  ret i1 %7
}

; Function Attrs: inlinehint mustprogress nounwind uwtable
define internal noundef zeroext i1 @_ZN7Imf_3_412_GLOBAL__N_15isNanEf(float noundef %0) #5 {
  %2 = alloca float, align 4
  %3 = alloca %union.anon.0, align 4
  store float %0, ptr %2, align 4, !tbaa !11
  call void @llvm.lifetime.start.p0(i64 4, ptr %3) #3
  %4 = load float, ptr %2, align 4, !tbaa !11
  store float %4, ptr %3, align 4, !tbaa !13
  %5 = load i32, ptr %3, align 4, !tbaa !13
  %6 = and i32 %5, 2147483647
  %7 = icmp sgt i32 %6, 2139095040
  call void @llvm.lifetime.end.p0(i64 4, ptr %3) #3
  ret i1 %7
}

; Function Attrs: inlinehint mustprogress nounwind uwtable
define internal noundef zeroext i1 @_ZN7Imf_3_412_GLOBAL__N_110isNegativeEf(float noundef %0) #5 {
  %2 = alloca float, align 4
  %3 = alloca %union.anon, align 4
  store float %0, ptr %2, align 4, !tbaa !11
  call void @llvm.lifetime.start.p0(i64 4, ptr %3) #3
  %4 = load float, ptr %2, align 4, !tbaa !11
  store float %4, ptr %3, align 4, !tbaa !13
  %5 = load i32, ptr %3, align 4, !tbaa !13
  %6 = and i32 %5, -2147483648
  %7 = icmp ne i32 %6, 0
  call void @llvm.lifetime.end.p0(i64 4, ptr %3) #3
  ret i1 %7
}

; Function Attrs: mustprogress uwtable
define noundef i32 @_ZN7Imf_3_411floatToUintEf(float noundef %0) #6 {
  %2 = alloca i32, align 4
  %3 = alloca float, align 4
  store float %0, ptr %3, align 4, !tbaa !11
  %4 = load float, ptr %3, align 4, !tbaa !11
  %5 = call noundef zeroext i1 @_ZN7Imf_3_412_GLOBAL__N_110isNegativeEf(float noundef %4)
  br i1 %5, label %9, label %6

6:                                                ; preds = %1
  %7 = load float, ptr %3, align 4, !tbaa !11
  %8 = call noundef zeroext i1 @_ZN7Imf_3_412_GLOBAL__N_15isNanEf(float noundef %7)
  br i1 %8, label %9, label %10

9:                                                ; preds = %6, %1
  store i32 0, ptr %2, align 4
  br label %23

10:                                               ; preds = %6
  %11 = load float, ptr %3, align 4, !tbaa !11
  %12 = call noundef zeroext i1 @_ZN7Imf_3_412_GLOBAL__N_110isInfinityEf(float noundef %11)
  br i1 %12, label %18, label %13

13:                                               ; preds = %10
  %14 = load float, ptr %3, align 4, !tbaa !11
  %15 = call noundef i32 @_ZNSt14numeric_limitsIjE3maxEv() #3
  %16 = uitofp i32 %15 to float
  %17 = fcmp ogt float %14, %16
  br i1 %17, label %18, label %20

18:                                               ; preds = %13, %10
  %19 = call noundef i32 @_ZNSt14numeric_limitsIjE3maxEv() #3
  store i32 %19, ptr %2, align 4
  br label %23

20:                                               ; preds = %13
  %21 = load float, ptr %3, align 4, !tbaa !11
  %22 = fptoui float %21 to i32
  store i32 %22, ptr %2, align 4
  br label %23

23:                                               ; preds = %20, %18, %9
  %24 = load i32, ptr %2, align 4
  ret i32 %24
}