; Function Attrs: mustprogress nofree norecurse nosync nounwind willreturn memory(none) uwtable
define noundef i32 @_ZN7Imf_3_411floatToUintEf(float noundef %0) local_unnamed_addr #4 {
  %2 = bitcast float %0 to i32
  %or.cond7 = icmp ugt i32 %2, 2139095040
  br i1 %or.cond7, label %7, label %3

3:                                                ; preds = %1
  %4 = fcmp oeq float %0, 0x7FF0000000000000
  %5 = fcmp ogt float %0, 0x41F0000000000000
  %or.cond = or i1 %4, %5
  %6 = fptoui float %0 to i32
  %spec.select = select i1 %or.cond, i32 -1, i32 %6
  br label %7

7:                                                ; preds = %3, %1
  %.0 = phi i32 [ 0, %1 ], [ %spec.select, %3 ]
  ret i32 %.0
}